target datalayout = "e-m:e-p270:32:32-p271:32:32-p272:64:64-i64:64-i128:128-f80:128-n8:16:32:64-S128"
target triple = "x86_64-unknown-linux-gnu"

%"struct.icu_75::FormattedStringBuilder::Field" = type { i8 }
%"class.icu_75::MaybeStackArray" = type <{ ptr, i32, i8, [40 x i8], [3 x i8] }>
%"class.icu_75::number::impl::MutablePatternModifier" = type { %"class.icu_75::number::impl::MicroPropsGenerator", %"class.icu_75::number::impl::Modifier", %"class.icu_75::number::impl::SymbolProvider", i8, ptr, %"struct.icu_75::FormattedStringBuilder::Field", i32, i8, i8, ptr, i32, %"class.icu_75::number::impl::CurrencySymbols", ptr, i32, i32, ptr, %"class.icu_75::UnicodeString" }
%"class.icu_75::number::impl::MicroPropsGenerator" = type { ptr }
%"class.icu_75::number::impl::Modifier" = type { ptr }
%"class.icu_75::number::impl::SymbolProvider" = type { ptr }
%"class.icu_75::number::impl::CurrencySymbols" = type { [8 x i8], %"class.icu_75::CurrencyUnit", %"class.icu_75::CharString", %"class.icu_75::UnicodeString", %"class.icu_75::UnicodeString" }
%"class.icu_75::CurrencyUnit" = type { %"class.icu_75::MeasureUnit.base", [4 x i16], [4 x i8] }
%"class.icu_75::MeasureUnit.base" = type <{ %"class.icu_75::UObject", ptr, i16, i8 }>
%"class.icu_75::UObject" = type { ptr }
%"class.icu_75::CharString" = type { %"class.icu_75::MaybeStackArray", i32, [4 x i8] }
%"class.icu_75::UnicodeString" = type { %"class.icu_75::Replaceable", %"union.icu_75::UnicodeString::StackBufferOrFields" }
%"class.icu_75::Replaceable" = type { %"class.icu_75::UObject" }
%"union.icu_75::UnicodeString::StackBufferOrFields" = type { %struct.anon.0, [32 x i8] }
%struct.anon.0 = type { i16, i32, i32, ptr }

; Function Attrs: mustprogress nounwind uwtable
define void @_ZN6icu_756number4impl22MutablePatternModifier20setPatternAttributesE18UNumberSignDisplaybb(ptr noundef nonnull align 8 dereferenceable(392) %this, i32 noundef %signDisplay, i1 noundef zeroext %perMille, i1 noundef zeroext %approximately) #0 align 2 {
entry:
  %this.addr = alloca ptr, align 8
  %signDisplay.addr = alloca i32, align 4
  %perMille.addr = alloca i8, align 1
  %approximately.addr = alloca i8, align 1
  store ptr %this, ptr %this.addr, align 8
  store i32 %signDisplay, ptr %signDisplay.addr, align 4
  %frombool = zext i1 %perMille to i8
  store i8 %frombool, ptr %perMille.addr, align 1
  %frombool1 = zext i1 %approximately to i8
  store i8 %frombool1, ptr %approximately.addr, align 1
  %this2 = load ptr, ptr %this.addr, align 8
  %0 = load i32, ptr %signDisplay.addr, align 4
  %fSignDisplay = getelementptr inbounds %"class.icu_75::number::impl::MutablePatternModifier", ptr %this2, i32 0, i32 6
  store i32 %0, ptr %fSignDisplay, align 4
  %1 = load i8, ptr %perMille.addr, align 1
  %tobool = trunc i8 %1 to i1
  %fPerMilleReplacesPercent = getelementptr inbounds %"class.icu_75::number::impl::MutablePatternModifier", ptr %this2, i32 0, i32 7
  %frombool3 = zext i1 %tobool to i8
  store i8 %frombool3, ptr %fPerMilleReplacesPercent, align 8
  %2 = load i8, ptr %approximately.addr, align 1
  %tobool4 = trunc i8 %2 to i1
  %fApproximately = getelementptr inbounds %"class.icu_75::number::impl::MutablePatternModifier", ptr %this2, i32 0, i32 8
  %frombool5 = zext i1 %tobool4 to i8
  store i8 %frombool5, ptr %fApproximately, align 1
  ret void
}