; Function Attrs: mustprogress nofree norecurse nosync nounwind willreturn memory(argmem: write) uwtable
define void @_ZN6icu_756number4impl22MutablePatternModifier20setPatternAttributesE18UNumberSignDisplaybb(ptr nocapture noundef nonnull writeonly align 8 dereferenceable(392) %this, i32 noundef %signDisplay, i1 noundef zeroext %perMille, i1 noundef zeroext %approximately) local_unnamed_addr #10 align 2 {
entry:
  %frombool = zext i1 %perMille to i8
  %frombool1 = zext i1 %approximately to i8
  %fSignDisplay = getelementptr inbounds i8, ptr %this, i64 44
  store i32 %signDisplay, ptr %fSignDisplay, align 4
  %fPerMilleReplacesPercent = getelementptr inbounds i8, ptr %this, i64 48
  store i8 %frombool, ptr %fPerMilleReplacesPercent, align 8
  %fApproximately = getelementptr inbounds i8, ptr %this, i64 49
  store i8 %frombool1, ptr %fApproximately, align 1
  ret void
}